; Function Attrs: null_pointer_is_valid sspstrong uwtable
define internal fastcc void @add_manuf_name(ptr noundef nonnull %0, i32 noundef %1, ptr noundef nonnull %2, ptr noundef nonnull %3) unnamed_addr #3 {
  switch i32 %1, label %33 [
    i32 0, label %5
    i32 48, label %32
  ]

5:                                                ; preds = %4
  %6 = load i8, ptr %0, align 1
  %7 = getelementptr i8, ptr %0, i64 1
  %8 = load i8, ptr %7, align 1
  %9 = getelementptr i8, ptr %0, i64 2
  %10 = load i8, ptr %9, align 1
  %11 = load ptr, ptr @addr_resolv_scope, align 8
  %12 = tail call noalias dereferenceable_or_null(141) ptr @wmem_alloc(ptr noundef %11, i64 noundef 141) #26
  %13 = getelementptr inbounds nuw i8, ptr %12, i64 1
  tail call void @llvm.memcpy.p0.p0.i64(ptr noundef nonnull align 1 dereferenceable(3) %13, ptr noundef nonnull align 1 dereferenceable(3) %0, i64 noundef 3, i1 noundef false) #24
  %14 = getelementptr inbounds nuw i8, ptr %12, i64 13
  %15 = tail call i64 @g_strlcpy(ptr noundef nonnull %14, ptr noundef nonnull %2, i64 noundef 64)
  store i8 2, ptr %12, align 1
  %16 = getelementptr inbounds nuw i8, ptr %12, i64 77
  %17 = tail call i64 @g_strlcpy(ptr noundef nonnull %16, ptr noundef nonnull %3, i64 noundef 64)
  %18 = zext i8 %6 to i64
  %19 = shl nuw nsw i64 %18, 16
  %20 = zext i8 %8 to i64
  %21 = shl nuw nsw i64 %20, 8
  %22 = or disjoint i64 %21, %19
  %23 = zext i8 %10 to i64
  %24 = or disjoint i64 %22, %23
  %25 = getelementptr inbounds nuw i8, ptr %12, i64 4
  %26 = tail call ptr @bytes_to_hexstr_punct(ptr noundef nonnull %25, ptr noundef nonnull %0, i64 noundef 3, i8 noundef signext 58)
  store i8 0, ptr %26, align 1
  %27 = load ptr, ptr @manuf_hashtable, align 8
  %28 = inttoptr i64 %24 to ptr
  %29 = tail call ptr @wmem_map_insert(ptr noundef %27, ptr noundef %28, ptr noundef %12)
  %30 = load i8, ptr %12, align 1
  %31 = or i8 %30, 8
  store i8 %31, ptr %12, align 1
  br label %45

32:                                               ; preds = %4
  tail call fastcc void @add_eth_name(ptr noundef nonnull %0, ptr noundef nonnull %2, i1 noundef zeroext true)
  br label %45

33:                                               ; preds = %4
  %34 = load ptr, ptr @addr_resolv_scope, align 8
  %35 = tail call noalias dereferenceable_or_null(6) ptr @wmem_alloc(ptr noundef %34, i64 noundef 6) #26
  tail call void @llvm.memcpy.p0.p0.i64(ptr noundef align 1 dereferenceable(6) %35, ptr noundef nonnull readonly align 1 dereferenceable(6) %0, i64 noundef 6, i1 noundef false) #24
  %36 = load ptr, ptr @addr_resolv_scope, align 8
  %37 = tail call noalias dereferenceable_or_null(16) ptr @wmem_alloc(ptr noundef %36, i64 noundef 16) #26
  store i8 2, ptr %37, align 8
  %38 = load ptr, ptr @addr_resolv_scope, align 8
  %39 = tail call noalias ptr @wmem_strdup(ptr noundef %38, ptr noundef nonnull %2)
  %40 = getelementptr inbounds nuw i8, ptr %37, i64 8
  store ptr %39, ptr %40, align 8
  %41 = load ptr, ptr @wka_hashtable, align 8
  %42 = tail call ptr @wmem_map_insert(ptr noundef %41, ptr noundef %35, ptr noundef %37)
  %43 = load i8, ptr %37, align 8
  %44 = or i8 %43, 8
  store i8 %44, ptr %37, align 8
  br label %45

45:                                               ; preds = %33, %32, %5
  ret void
}